; Function Attrs: mustprogress nofree norecurse nosync nounwind willreturn memory(read, argmem: readwrite, inaccessiblemem: none) uwtable
define noundef zeroext i1 @_ZN4base14PickleIterator15ReadStringPieceEPNS_16BasicStringPieceINSt7__cxx1112basic_stringIcSt11char_traitsIcESaIcEEEEE(ptr noundef nonnull align 8 captures(none) dereferenceable(24) %0, ptr noundef writeonly captures(none) %1) local_unnamed_addr #4 align 2 {
  %3 = getelementptr inbounds nuw i8, ptr %0, i64 16
  %4 = load i64, ptr %3, align 8, !tbaa !22
  %5 = getelementptr inbounds nuw i8, ptr %0, i64 8
  %6 = load i64, ptr %5, align 8, !tbaa !21
  %7 = sub i64 %4, %6
  %8 = icmp ult i64 %7, 4
  %9 = load ptr, ptr %0, align 8
  %10 = add i64 %6, 4
  %storemerge.i.i.i = select i1 %8, i64 %4, i64 %10
  store i64 %storemerge.i.i.i, ptr %5, align 8, !tbaa !21
  %.not.i.i.not14 = icmp eq ptr %9, null
  %.not.i.i.not = select i1 %8, i1 true, i1 %.not.i.i.not14
  br i1 %.not.i.i.not, label %_ZN4base14PickleIterator7ReadIntEPi.exit, label %11

11:                                               ; preds = %2
  %12 = getelementptr inbounds nuw i8, ptr %9, i64 %6
  %13 = load i32, ptr %12, align 4, !tbaa !27
  %14 = icmp slt i32 %13, 0
  br i1 %14, label %_ZN4base14PickleIterator24GetReadPointerAndAdvanceEi.exit.thread, label %15

15:                                               ; preds = %11
  %16 = sub i64 %4, %10
  %17 = zext nneg i32 %13 to i64
  %18 = icmp ult i64 %16, %17
  br i1 %18, label %_ZN4base14PickleIterator24GetReadPointerAndAdvanceEi.exit.thread, label %_ZN4base14PickleIterator24GetReadPointerAndAdvanceEi.exit

_ZN4base14PickleIterator24GetReadPointerAndAdvanceEi.exit.thread: ; preds = %11, %15
  store i64 %4, ptr %5, align 8, !tbaa !21
  br label %_ZN4base14PickleIterator7ReadIntEPi.exit

_ZN4base14PickleIterator24GetReadPointerAndAdvanceEi.exit: ; preds = %15
  %19 = add nuw nsw i64 %17, 3
  %20 = and i64 %19, 4294967292
  %21 = icmp ult i64 %16, %20
  %22 = add i64 %20, %10
  %storemerge.i.i = select i1 %21, i64 %4, i64 %22
  store i64 %storemerge.i.i, ptr %5, align 8, !tbaa !21
  %23 = getelementptr inbounds nuw i8, ptr %9, i64 %10
  store ptr %23, ptr %1, align 8, !tbaa !34
  %.sroa.4.0..sroa_idx = getelementptr inbounds nuw i8, ptr %1, i64 8
  store i64 %17, ptr %.sroa.4.0..sroa_idx, align 8, !tbaa !28
  br label %_ZN4base14PickleIterator7ReadIntEPi.exit

_ZN4base14PickleIterator7ReadIntEPi.exit:         ; preds = %_ZN4base14PickleIterator24GetReadPointerAndAdvanceEi.exit.thread, %2, %_ZN4base14PickleIterator24GetReadPointerAndAdvanceEi.exit
  %.0 = phi i1 [ true, %_ZN4base14PickleIterator24GetReadPointerAndAdvanceEi.exit ], [ false, %2 ], [ false, %_ZN4base14PickleIterator24GetReadPointerAndAdvanceEi.exit.thread ]
  ret i1 %.0
}